; Function Attrs: mustprogress uwtable
define dso_local { ptr, i64 } @_ZN5vcpkg10ParserBase16skip_tabs_spacesEv(ptr noundef nonnull align 8 dereferenceable(176) %0) local_unnamed_addr #0 align 2 personality ptr @__gxx_personality_v0 {
  %2 = alloca %"struct.vcpkg::LineInfo", align 8
  %3 = getelementptr inbounds nuw i8, ptr %0, i64 8
  %4 = load ptr, ptr %3, align 8, !tbaa !19
  %5 = load i32, ptr %0, align 8, !tbaa !15
  %6 = getelementptr inbounds nuw i8, ptr %0, i64 64
  %7 = getelementptr inbounds nuw i8, ptr %0, i64 68
  %8 = getelementptr inbounds nuw i8, ptr %0, i64 32
  br label %_ZN5vcpkg10ParserBase4nextEv.exit.i

_ZN5vcpkg10ParserBase4nextEv.exit.i:              ; preds = %_ZN5vcpkg10ParserBase4nextEv.exit.i.backedge, %1
  %9 = phi i32 [ %5, %1 ], [ %.be, %_ZN5vcpkg10ParserBase4nextEv.exit.i.backedge ]
  switch i32 %9, label %"_ZN5vcpkg10ParserBase11match_whileIZNS0_16skip_tabs_spacesEvE3$_0EENS_10StringViewET_.exit" [
    i32 9, label %_ZNK5vcpkg7Unicode11Utf8DecoderdeEv.exit.i.i
    i32 32, label %_ZNK5vcpkg7Unicode11Utf8DecoderdeEv.exit.i.i
  ]

_ZNK5vcpkg7Unicode11Utf8DecoderdeEv.exit.i.i:     ; preds = %_ZN5vcpkg10ParserBase4nextEv.exit.i, %_ZN5vcpkg10ParserBase4nextEv.exit.i
  %10 = load i32, ptr %6, align 8, !tbaa !71
  %11 = icmp eq i32 %10, 0
  %12 = load i32, ptr %7, align 4
  %13 = icmp eq i32 %12, 0
  %or.cond.i.i.i = select i1 %11, i1 %13, i1 false
  br i1 %or.cond.i.i.i, label %_ZN5vcpkgL14advance_rowcolEDiRiS0_.exit.i.i, label %14

14:                                               ; preds = %_ZNK5vcpkg7Unicode11Utf8DecoderdeEv.exit.i.i
  %brmerge.i.i.i = select i1 %11, i1 true, i1 %13
  br i1 %brmerge.i.i.i, label %15, label %17

15:                                               ; preds = %14
  call void @llvm.lifetime.start.p0(i64 16, ptr nonnull %2) #21
  store i32 18, ptr %2, align 8, !tbaa !29
  %16 = getelementptr inbounds nuw i8, ptr %2, i64 8
  store ptr @.str.2, ptr %16, align 8, !tbaa !32
  call void @_ZN5vcpkg6Checks11unreachableERKNS_8LineInfoE(ptr noundef nonnull align 8 dereferenceable(16) %2) #22
  unreachable

17:                                               ; preds = %14
  switch i32 %9, label %24 [
    i32 9, label %18
    i32 10, label %22
  ]

18:                                               ; preds = %17
  %19 = add nsw i32 %12, 7
  %20 = and i32 %19, -8
  %21 = or disjoint i32 %20, 1
  br label %.sink.split.i.i.i

22:                                               ; preds = %17
  %23 = add nsw i32 %10, 1
  store i32 %23, ptr %6, align 8, !tbaa !71
  br label %.sink.split.i.i.i

24:                                               ; preds = %17
  %25 = add nsw i32 %12, 1
  br label %.sink.split.i.i.i

.sink.split.i.i.i:                                ; preds = %24, %22, %18
  %.sink.i.i.i = phi i32 [ 1, %22 ], [ %25, %24 ], [ %21, %18 ]
  store i32 %.sink.i.i.i, ptr %7, align 4, !tbaa !71
  br label %_ZN5vcpkgL14advance_rowcolEDiRiS0_.exit.i.i

_ZN5vcpkgL14advance_rowcolEDiRiS0_.exit.i.i:      ; preds = %.sink.split.i.i.i, %_ZNK5vcpkg7Unicode11Utf8DecoderdeEv.exit.i.i
  %26 = tail call noundef nonnull align 8 dereferenceable(32) ptr @_ZN5vcpkg7Unicode11Utf8DecoderppEv(ptr noundef nonnull align 8 dereferenceable(176) %0) #21
  %27 = icmp eq i32 %9, 10
  br i1 %27, label %28, label %29

28:                                               ; preds = %_ZN5vcpkgL14advance_rowcolEDiRiS0_.exit.i.i
  tail call void @llvm.memcpy.p0.p0.i64(ptr noundef nonnull align 8 dereferenceable(32) %8, ptr noundef nonnull align 8 dereferenceable(176) %0, i64 32, i1 false), !tbaa.struct !7
  br label %29

29:                                               ; preds = %28, %_ZN5vcpkgL14advance_rowcolEDiRiS0_.exit.i.i
  %30 = load i32, ptr %0, align 8, !tbaa !15
  %31 = and i32 %30, -2048
  %32 = icmp eq i32 %31, 55296
  br i1 %32, label %33, label %_ZN5vcpkg10ParserBase4nextEv.exit.i.backedge

33:                                               ; preds = %29
  %34 = tail call noundef nonnull align 8 dereferenceable(32) ptr @_ZN5vcpkg7Unicode11Utf8DecoderaSENS1_8sentinelE(ptr noundef nonnull align 8 dereferenceable(176) %0) #21
  %.pre.i.i = load i32, ptr %0, align 8, !tbaa !15
  br label %_ZN5vcpkg10ParserBase4nextEv.exit.i.backedge

_ZN5vcpkg10ParserBase4nextEv.exit.i.backedge:     ; preds = %33, %29
  %.be = phi i32 [ %.pre.i.i, %33 ], [ %30, %29 ]
  br label %_ZN5vcpkg10ParserBase4nextEv.exit.i, !llvm.loop !73

"_ZN5vcpkg10ParserBase11match_whileIZNS0_16skip_tabs_spacesEvE3$_0EENS_10StringViewET_.exit": ; preds = %_ZN5vcpkg10ParserBase4nextEv.exit.i
  %35 = load ptr, ptr %3, align 8, !tbaa !19
  %36 = ptrtoint ptr %35 to i64
  %37 = ptrtoint ptr %4 to i64
  %38 = sub i64 %36, %37
  %.fca.0.insert.i = insertvalue { ptr, i64 } poison, ptr %4, 0
  %.fca.1.insert.i = insertvalue { ptr, i64 } %.fca.0.insert.i, i64 %38, 1
  ret { ptr, i64 } %.fca.1.insert.i
}